target datalayout = "e-m:e-p270:32:32-p271:32:32-p272:64:64-i64:64-i128:128-f80:128-n8:16:32:64-S128"
target triple = "x86_64-pc-linux-gnu"

%struct.asn1_string_st = type { i32, i32, ptr, i64 }
%struct.ossl_issuer_serial_st = type { ptr, %struct.asn1_string_st, ptr }

@.str = private unnamed_addr constant [34 x i8] c"../openssl/crypto/x509/x509aset.c\00", align 1
@__func__.OSSL_ISSUER_SERIAL_set1_issuerUID = private unnamed_addr constant [34 x i8] c"OSSL_ISSUER_SERIAL_set1_issuerUID\00", align 1

; Function Attrs: nounwind uwtable
define i32 @OSSL_ISSUER_SERIAL_set1_issuerUID(ptr noundef %0, ptr noundef %1) #0 {
  %3 = alloca i32, align 4
  %4 = alloca ptr, align 8
  %5 = alloca ptr, align 8
  store ptr %0, ptr %4, align 8, !tbaa !14
  store ptr %1, ptr %5, align 8, !tbaa !12
  %6 = load ptr, ptr %4, align 8, !tbaa !14
  %7 = getelementptr inbounds nuw %struct.ossl_issuer_serial_st, ptr %6, i32 0, i32 2
  %8 = load ptr, ptr %7, align 8, !tbaa !24
  call void @ASN1_BIT_STRING_free(ptr noundef %8)
  %9 = load ptr, ptr %5, align 8, !tbaa !12
  %10 = call ptr @ASN1_STRING_dup(ptr noundef %9)
  %11 = load ptr, ptr %4, align 8, !tbaa !14
  %12 = getelementptr inbounds nuw %struct.ossl_issuer_serial_st, ptr %11, i32 0, i32 2
  store ptr %10, ptr %12, align 8, !tbaa !24
  %13 = load ptr, ptr %4, align 8, !tbaa !14
  %14 = getelementptr inbounds nuw %struct.ossl_issuer_serial_st, ptr %13, i32 0, i32 2
  %15 = load ptr, ptr %14, align 8, !tbaa !24
  %16 = icmp eq ptr %15, null
  br i1 %16, label %17, label %18

17:                                               ; preds = %2
  call void @ERR_new()
  call void @ERR_set_debug(ptr noundef @.str, i32 noundef 113, ptr noundef @__func__.OSSL_ISSUER_SERIAL_set1_issuerUID)
  call void (i32, i32, ptr, ...) @ERR_set_error(i32 noundef 11, i32 noundef 524301, ptr noundef null)
  store i32 0, ptr %3, align 4
  br label %19

18:                                               ; preds = %2
  store i32 1, ptr %3, align 4
  br label %19

19:                                               ; preds = %18, %17
  %20 = load i32, ptr %3, align 4
  ret i32 %20
}