; Function Attrs: nounwind uwtable
define range(i32 0, 2) i32 @OSSL_ISSUER_SERIAL_set1_issuerUID(ptr noundef captures(none) %0, ptr noundef %1) local_unnamed_addr #0 {
  %3 = getelementptr inbounds nuw i8, ptr %0, i64 32
  %4 = load ptr, ptr %3, align 8, !tbaa !8
  tail call void @ASN1_BIT_STRING_free(ptr noundef %4) #2
  %5 = tail call ptr @ASN1_STRING_dup(ptr noundef %1) #2
  store ptr %5, ptr %3, align 8, !tbaa !8
  %6 = icmp eq ptr %5, null
  br i1 %6, label %7, label %8

7:                                                ; preds = %2
  tail call void @ERR_new() #2
  tail call void @ERR_set_debug(ptr noundef nonnull @.str, i32 noundef 113, ptr noundef nonnull @__func__.OSSL_ISSUER_SERIAL_set1_issuerUID) #2
  tail call void (i32, i32, ptr, ...) @ERR_set_error(i32 noundef 11, i32 noundef 524301, ptr noundef null) #2
  br label %8

8:                                                ; preds = %2, %7
  %.0 = phi i32 [ 0, %7 ], [ 1, %2 ]
  ret i32 %.0
}